(lp0
(dp1
S'spine_3'
p2
(dp3
F0.5
(dp4
(I-2
I0
tp5
I1
s(I-3
I-1
tp6
I1
s(I2
I1
tp7
I2
s(I-7
I0
tp8
I1
s(I-1
I5
tp9
I1
s(I2
I5
tp10
I1
s(I1
I-1
tp11
I1
s(I4
I-2
tp12
I1
s(I7
I2
tp13
I1
s(I-2
I-1
tp14
I5
s(I1
I2
tp15
I1
s(I-7
I7
tp16
I1
s(I-3
I-2
tp17
I1
s(I-3
I2
tp18
I1
s(I5
I0
tp19
I1
s(I-1
I-2
tp20
I3
s(I4
I1
tp21
I1
s(I5
I-2
tp22
I2
s(I-2
I2
tp23
I6
s(I2
I2
tp24
I3
s(I2
I-2
tp25
I2
s(I0
I12
tp26
I1
s(I0
I5
tp27
I3
s(I-2
I-3
tp28
I3
s(I0
I-2
tp29
I5
s(I1
I0
tp30
I1
s(I-3
I5
tp31
I1
s(I-2
I5
tp32
I1
s(I12
I0
tp33
I2
s(I-2
I3
tp34
I4
s(I-2
I-2
tp35
I4
s(I2
I0
tp36
I2
s(I-2
I4
tp37
I1
s(I-5
I2
tp38
I1
s(I5
I2
tp39
I2
s(I0
I2
tp40
I2
ssF1.0
(dp41
(I5
I-2
tp42
I4
s(I-3
I-2
tp43
I2
s(I-5
I5
tp44
I1
s(I2
I1
tp45
I5
s(I7
I-2
tp46
I1
s(I-2
I5
tp47
I2
s(I-3
I3
tp48
I1
s(I1
I-1
tp49
I2
s(I4
I-2
tp50
I2
s(I-2
I-1
tp51
I6
s(I1
I2
tp52
I1
s(I12
I2
tp53
I1
s(I-1
I1
tp54
I2
s(I-3
I7
tp55
I1
s(I2
I-2
tp56
I2
s(I-1
I-4
tp57
I1
s(I5
I-1
tp58
I2
s(I-3
I2
tp59
I1
s(I5
I0
tp60
I2
s(I2
I2
tp61
I1
s(I12
I-3
tp62
I1
s(I1
I-3
tp63
I1
s(I-5
I0
tp64
I2
s(I0
I0
tp65
I7
s(I-4
I-3
tp66
I1
s(I-12
I2
tp67
I1
s(I-2
I2
tp68
I6
s(I-2
I-2
tp69
I2
s(I0
I5
tp70
I1
s(I-2
I-3
tp71
I1
s(I-1
I3
tp72
I1
s(I5
I-3
tp73
I1
s(I-2
I-5
tp74
I2
s(I7
I0
tp75
I1
s(I-4
I-1
tp76
I1
s(I-2
I3
tp77
I1
s(I-5
I-7
tp78
I1
s(I-1
I-2
tp79
I8
s(I3
I-1
tp80
I1
s(I0
I-7
tp81
I1
s(I0
I-2
tp82
I4
ssF0.25
(dp83
(I1
I3
tp84
I1
s(I2
I-4
tp85
I1
s(I-3
I-1
tp86
I1
s(I-2
I4
tp87
I1
s(I2
I1
tp88
I9
s(I2
I-1
tp89
I1
s(I1
I-1
tp90
I5
s(I-2
I0
tp91
I1
s(I1
I2
tp92
I3
s(I-1
I1
tp93
I5
s(I-1
I0
tp94
I4
s(I3
I0
tp95
I1
s(I1
I5
tp96
I1
s(I-1
I-2
tp97
I7
s(I1
I-3
tp98
I1
s(I3
I2
tp99
I1
s(I-2
I2
tp100
I4
s(I2
I2
tp101
I2
s(I2
I-2
tp102
I3
s(I3
I-12
tp103
I1
s(I2
I-3
tp104
I1
s(I1
I4
tp105
I1
s(I-2
I-1
tp106
I8
s(I-3
I1
tp107
I1
s(I1
I-4
tp108
I1
s(I0
I-2
tp109
I4
s(I-3
I-2
tp110
I1
s(I0
I1
tp111
I1
s(I-2
I12
tp112
I2
s(I-2
I5
tp113
I4
s(I-2
I3
tp114
I8
s(I-2
I-2
tp115
I6
s(I-1
I3
tp116
I2
s(I0
I-1
tp117
I3
s(I0
I2
tp118
I2
ssF0.0625
(dp119
(I3
I2
tp120
I1
s(I-2
I2
tp121
I1
s(I3
I12
tp122
I1
s(I-1
I0
tp123
I1
s(I-2
I4
tp124
I1
s(I2
I-2
tp125
I1
s(I2
I-3
tp126
I1
s(I2
I1
tp127
I3
s(I-4
I2
tp128
I1
s(I-3
I2
tp129
I2
s(I-1
I-2
tp130
I8
s(I1
I-3
tp131
I1
s(I1
I-1
tp132
I1
s(I3
I-5
tp133
I1
s(I-4
I-1
tp134
I1
ssF0.125
(dp135
(I-1
I0
tp136
I2
s(I-3
I-2
tp137
I2
s(I2
I1
tp138
I4
s(I-4
I2
tp139
I1
s(I3
I-2
tp140
I1
s(I3
I-3
tp141
I1
s(I3
I7
tp142
I1
s(I2
I5
tp143
I1
s(I1
I-1
tp144
I4
s(I2
I-4
tp145
I2
s(I1
I2
tp146
I6
s(I-1
I1
tp147
I2
s(I3
I0
tp148
I3
s(I-3
I2
tp149
I1
s(I5
I0
tp150
I2
s(I2
I2
tp151
I2
s(I1
I-3
tp152
I2
s(I5
I-2
tp153
I2
s(I2
I-2
tp154
I7
s(I-2
I-1
tp155
I10
s(I-2
I2
tp156
I4
s(I2
I-3
tp157
I1
s(I-2
I-2
tp158
I5
s(I-3
I1
tp159
I1
s(I-2
I-3
tp160
I2
s(I0
I-2
tp161
I3
s(I1
I0
tp162
I1
s(I3
I-5
tp163
I2
s(I3
I5
tp164
I1
s(I-2
I3
tp165
I1
s(I-1
I-2
tp166
I10
s(I3
I-1
tp167
I3
s(I2
I0
tp168
I3
s(I0
I-1
tp169
I1
s(I5
I2
tp170
I1
sssS'spine_2'
p171
(dp172
F0.5
(dp173
(I-2
I0
tp174
I6
s(I1
I-5
tp175
I1
s(I2
I1
tp176
I4
s(I0
I0
tp177
I1
s(I-5
I5
tp178
I2
s(I7
I2
tp179
I1
s(I2
I-4
tp180
I1
s(I1
I2
tp181
I3
s(I-1
I1
tp182
I1
s(I2
I0
tp183
I2
s(I-7
I7
tp184
I1
s(I-3
I2
tp185
I1
s(I0
I-7
tp186
I3
s(I5
I0
tp187
I4
s(I-2
I-1
tp188
I6
s(I0
I-4
tp189
I1
s(I2
I-2
tp190
I3
s(I2
I2
tp191
I1
s(I-2
I-2
tp192
I2
s(I-2
I2
tp193
I2
s(I0
I12
tp194
I1
s(I0
I5
tp195
I1
s(I-2
I-3
tp196
I3
s(I-2
I7
tp197
I1
s(I0
I1
tp198
I1
s(I-2
I12
tp199
I1
s(I7
I0
tp200
I1
s(I-2
I3
tp201
I1
s(I-1
I-2
tp202
I1
s(I-1
I3
tp203
I1
s(I0
I-2
tp204
I3
s(I0
I7
tp205
I1
ssF1.0
(dp206
(I-2
I0
tp207
I2
s(I-2
I-3
tp208
I2
s(I-4
I2
tp209
I3
s(I-7
I0
tp210
I1
s(I0
I0
tp211
I7
s(I2
I-2
tp212
I2
s(I-5
I5
tp213
I2
s(I-2
I-7
tp214
I1
s(I-2
I-1
tp215
I4
s(I0
I-5
tp216
I2
s(I-2
I7
tp217
I2
s(I-7
I7
tp218
I2
s(I5
I0
tp219
I2
s(I2
I2
tp220
I7
s(I-5
I0
tp221
I2
s(I2
I-1
tp222
I1
s(I-12
I2
tp223
I1
s(I-2
I2
tp224
I1
s(I-2
I-2
tp225
I5
s(I-3
I1
tp226
I1
s(I0
I5
tp227
I3
s(I7
I-2
tp228
I1
s(I2
I-5
tp229
I1
s(I-2
I12
tp230
I1
s(I2
I-7
tp231
I1
s(I7
I0
tp232
I5
s(I-4
I-1
tp233
I1
s(I12
I0
tp234
I3
s(I0
I-7
tp235
I1
s(I-1
I-2
tp236
I7
s(I3
I-1
tp237
I1
s(I0
I-2
tp238
I8
s(I5
I2
tp239
I1
s(I0
I2
tp240
I2
ssF0.25
(dp241
(I-1
I0
tp242
I2
s(I2
I1
tp243
I4
s(I-4
I2
tp244
I1
s(I1
I-1
tp245
I1
s(I1
I2
tp246
I4
s(I2
I-3
tp247
I1
s(I-7
I7
tp248
I1
s(I5
I0
tp249
I2
s(I-2
I-2
tp250
I1
s(I5
I-2
tp251
I1
s(I2
I-2
tp252
I4
s(I-2
I-1
tp253
I4
s(I-2
I2
tp254
I6
s(I-1
I-2
tp255
I6
s(I-3
I1
tp256
I2
s(I0
I5
tp257
I1
s(I-2
I-3
tp258
I1
s(I0
I-1
tp259
I2
s(I-7
I2
tp260
I1
s(I2
I-5
tp261
I1
s(I-4
I-1
tp262
I1
s(I-2
I3
tp263
I2
s(I2
I2
tp264
I1
s(I2
I0
tp265
I2
s(I0
I-2
tp266
I3
s(I5
I2
tp267
I1
s(I0
I2
tp268
I3
ssF0.125
(dp269
(I2
I-4
tp270
I2
s(I3
I0
tp271
I2
s(I1
I-5
tp272
I1
s(I-3
I-4
tp273
I1
s(I2
I1
tp274
I2
s(I-2
I5
tp275
I1
s(I1
I-1
tp276
I1
s(I-1
I0
tp277
I1
s(I1
I2
tp278
I4
s(I2
I-3
tp279
I1
s(I-1
I-4
tp280
I1
s(I1
I-2
tp281
I1
s(I-3
I-2
tp282
I1
s(I-2
I-1
tp283
I1
s(I3
I2
tp284
I1
s(I2
I-2
tp285
I3
s(I-1
I-2
tp286
I3
s(I-2
I2
tp287
I2
s(I3
I-12
tp288
I1
s(I-3
I1
tp289
I1
s(I2
I3
tp290
I1
s(I-3
I5
tp291
I1
s(I2
I2
tp292
I3
s(I2
I0
tp293
I1
s(I0
I-2
tp294
I3
sssS'spine_1'
p295
(dp296
F0.5
(dp297
(I-4
I5
tp298
I1
s(I12
I1
tp299
I1
s(I-2
I0
tp300
I3
s(I3
I2
tp301
I1
s(I-2
I-3
tp302
I2
s(I-7
I0
tp303
I1
s(I3
I-1
tp304
I1
s(I2
I-2
tp305
I1
s(I1
I-1
tp306
I1
s(I-1
I0
tp307
I2
s(I1
I2
tp308
I2
s(I-3
I-3
tp309
I1
s(I2
I0
tp310
I2
s(I-7
I7
tp311
I2
s(I5
I0
tp312
I3
s(I-2
I-1
tp313
I4
s(I5
I-2
tp314
I2
s(I-3
I-4
tp315
I1
s(I0
I0
tp316
I3
s(I-2
I-2
tp317
I1
s(I-2
I2
tp318
I2
s(I2
I2
tp319
I1
s(I0
I5
tp320
I1
s(I2
I1
tp321
I2
s(I-4
I0
tp322
I1
s(I-7
I2
tp323
I2
s(I1
I0
tp324
I1
s(I-2
I7
tp325
I2
s(I-2
I12
tp326
I1
s(I-2
I5
tp327
I1
s(I-2
I3
tp328
I1
s(I0
I-1
tp329
I1
s(I-1
I-2
tp330
I1
s(I-3
I0
tp331
I1
s(I0
I-7
tp332
I2
s(I0
I-2
tp333
I2
s(I12
I-2
tp334
I1
ssF1.0
(dp335
(I2
I-2
tp336
I2
s(I-2
I0
tp337
I1
s(I-3
I-2
tp338
I2
s(I-5
I5
tp339
I2
s(I2
I1
tp340
I6
s(I-4
I2
tp341
I1
s(I-3
I12
tp342
I1
s(I-1
I5
tp343
I1
s(I-3
I3
tp344
I2
s(I1
I-1
tp345
I3
s(I-1
I0
tp346
I1
s(I-1
I3
tp347
I1
s(I0
I-5
tp348
I1
s(I7
I-7
tp349
I1
s(I3
I0
tp350
I1
s(I5
I0
tp351
I2
s(I2
I2
tp352
I2
s(I-12
I5
tp353
I1
s(I5
I-2
tp354
I3
s(I3
I2
tp355
I1
s(I0
I0
tp356
I4
s(I-4
I-3
tp357
I1
s(I-2
I-2
tp358
I4
s(I2
I-1
tp359
I1
s(I-1
I-2
tp360
I6
s(I-3
I1
tp361
I1
s(I0
I5
tp362
I3
s(I-2
I-3
tp363
I1
s(I0
I-2
tp364
I4
s(I0
I1
tp365
I1
s(I-2
I12
tp366
I1
s(I-2
I5
tp367
I1
s(I7
I0
tp368
I4
s(I-4
I-1
tp369
I1
s(I-2
I3
tp370
I1
s(I-2
I-1
tp371
I4
s(I-3
I0
tp372
I1
s(I0
I-7
tp373
I1
s(I0
I-1
tp374
I1
s(I5
I2
tp375
I1
s(I0
I2
tp376
I2
s(I12
I-1
tp377
I1
ssF0.125
(dp378
(I2
I-4
tp379
I2
s(I2
I1
tp380
I2
s(I-4
I2
tp381
I1
s(I-2
I5
tp382
I1
s(I2
I5
tp383
I1
s(I1
I-1
tp384
I3
s(I-1
I-2
tp385
I4
s(I1
I2
tp386
I5
s(I-1
I1
tp387
I1
s(I-3
I2
tp388
I1
s(I-2
I-2
tp389
I1
s(I3
I2
tp390
I2
s(I2
I-2
tp391
I4
s(I-2
I-1
tp392
I8
s(I-2
I2
tp393
I10
s(I2
I-3
tp394
I1
s(I2
I2
tp395
I3
s(I-3
I1
tp396
I1
s(I1
I0
tp397
I1
s(I-1
I5
tp398
I1
s(I4
I-4
tp399
I1
s(I2
I-7
tp400
I1
s(I-2
I3
tp401
I1
s(I2
I-12
tp402
I1
s(I3
I-2
tp403
I1
s(I2
I0
tp404
I2
s(I0
I-2
tp405
I3
s(I5
I2
tp406
I1
ssF0.0625
(dp407
(I1
I2
tp408
I1
s(I5
I-2
tp409
I1
s(I-1
I1
tp410
I1
s(I3
I-3
tp411
I1
s(I-2
I-1
tp412
I1
s(I2
I-2
tp413
I2
s(I-1
I-2
tp414
I3
s(I-2
I-3
tp415
I1
s(I2
I1
tp416
I4
s(I-2
I5
tp417
I1
s(I2
I2
tp418
I1
s(I0
I-2
tp419
I1
s(I2
I5
tp420
I1
ssF0.25
(dp421
(I3
I-1
tp422
I1
s(I2
I-4
tp423
I1
s(I2
I1
tp424
I4
s(I-3
I0
tp425
I1
s(I-1
I5
tp426
I1
s(I1
I-1
tp427
I1
s(I-1
I0
tp428
I1
s(I1
I2
tp429
I2
s(I2
I-3
tp430
I1
s(I-1
I-4
tp431
I1
s(I1
I-2
tp432
I1
s(I-2
I0
tp433
I2
s(I5
I-3
tp434
I1
s(I5
I0
tp435
I1
s(I-2
I-1
tp436
I4
s(I1
I-3
tp437
I2
s(I1
I-12
tp438
I1
s(I0
I-4
tp439
I1
s(I5
I-2
tp440
I1
s(I3
I2
tp441
I1
s(I-2
I2
tp442
I4
s(I-4
I-3
tp443
I1
s(I-12
I2
tp444
I1
s(I2
I-2
tp445
I2
s(I2
I2
tp446
I5
s(I-1
I1
tp447
I1
s(I-2
I-2
tp448
I7
s(I-3
I1
tp449
I1
s(I-2
I-3
tp450
I1
s(I0
I-2
tp451
I3
s(I1
I0
tp452
I1
s(I2
I-5
tp453
I1
s(I-5
I3
tp454
I1
s(I5
I3
tp455
I1
s(I-2
I5
tp456
I1
s(I-2
I3
tp457
I1
s(I0
I-1
tp458
I4
s(I-1
I-2
tp459
I12
s(I3
I-2
tp460
I1
s(I-1
I3
tp461
I2
s(I1
I7
tp462
I1
s(I-2
I4
tp463
I1
s(I5
I2
tp464
I1
s(I0
I2
tp465
I2
sssS'spine_0'
p466
(dp467
F0.5
(dp468
(I5
I-2
tp469
I2
s(I-2
I0
tp470
I2
s(I-3
I-2
tp471
I1
s(I-2
I-12
tp472
I1
s(I1
I-5
tp473
I1
s(I-2
I-3
tp474
I4
s(I-7
I0
tp475
I4
s(I-2
I5
tp476
I1
s(I-5
I5
tp477
I1
s(I-2
I-7
tp478
I1
s(I4
I-2
tp479
I2
s(I-1
I0
tp480
I1
s(I-1
I1
tp481
I1
s(I2
I-2
tp482
I3
s(I2
I-5
tp483
I3
s(I-7
I7
tp484
I1
s(I3
I0
tp485
I1
s(I5
I0
tp486
I1
s(I-2
I-1
tp487
I2
s(I1
I-3
tp488
I2
s(I7
I-12
tp489
I1
s(I3
I2
tp490
I1
s(I0
I0
tp491
I1
s(I-2
I-2
tp492
I2
s(I-3
I5
tp493
I1
s(I-2
I2
tp494
I1
s(I-5
I12
tp495
I1
s(I2
I2
tp496
I2
s(I-5
I7
tp497
I1
s(I0
I5
tp498
I1
s(I2
I1
tp499
I4
s(I0
I-2
tp500
I2
s(I-2
I7
tp501
I3
s(I-5
I3
tp502
I1
s(I-2
I-5
tp503
I1
s(I-2
I12
tp504
I2
s(I7
I0
tp505
I1
s(I0
I-7
tp506
I2
s(I-7
I5
tp507
I1
s(I-1
I-2
tp508
I4
s(I-7
I12
tp509
I1
s(I-1
I-4
tp510
I1
s(I-2
I4
tp511
I1
s(I-5
I2
tp512
I1
s(I0
I2
tp513
I2
s(I12
I-2
tp514
I1
ssF1.0
(dp515
(I3
I-1
tp516
I2
s(I2
I-4
tp517
I1
s(I-3
I-2
tp518
I2
s(I2
I1
tp519
I4
s(I0
I0
tp520
I6
s(I-3
I0
tp521
I1
s(I-2
I5
tp522
I1
s(I-2
I-7
tp523
I1
s(I4
I-2
tp524
I1
s(I-2
I0
tp525
I1
s(I1
I2
tp526
I1
s(I2
I-3
tp527
I1
s(I-5
I1
tp528
I1
s(I12
I-7
tp529
I1
s(I7
I-7
tp530
I3
s(I5
I0
tp531
I1
s(I-2
I-2
tp532
I3
s(I-12
I5
tp533
I1
s(I-4
I7
tp534
I1
s(I12
I3
tp535
I1
s(I5
I-2
tp536
I3
s(I-2
I2
tp537
I1
s(I7
I1
tp538
I1
s(I2
I2
tp539
I4
s(I-12
I2
tp540
I1
s(I2
I-2
tp541
I2
s(I-2
I-1
tp542
I5
s(I-5
I7
tp543
I1
s(I0
I5
tp544
I2
s(I12
I-2
tp545
I3
s(I0
I-1
tp546
I1
s(I-7
I2
tp547
I2
s(I0
I12
tp548
I1
s(I-2
I7
tp549
I1
s(I-3
I5
tp550
I1
s(I-2
I-5
tp551
I2
s(I-5
I3
tp552
I2
s(I7
I0
tp553
I4
s(I-4
I-2
tp554
I1
s(I12
I-5
tp555
I1
s(I0
I-7
tp556
I1
s(I-7
I5
tp557
I1
s(I-5
I-7
tp558
I1
s(I-1
I-2
tp559
I2
s(I3
I-2
tp560
I1
s(I-12
I7
tp561
I1
s(I0
I-2
tp562
I4
s(I5
I2
tp563
I1
s(I0
I2
tp564
I2
ssF0.125
(dp565
(I1
I2
tp566
I6
s(I-1
I1
tp567
I1
s(I-2
I2
tp568
I3
s(I-2
I0
tp569
I1
s(I-3
I3
tp570
I2
s(I-2
I-2
tp571
I1
s(I2
I-2
tp572
I4
s(I-2
I-1
tp573
I5
s(I2
I1
tp574
I2
s(I-1
I-2
tp575
I4
s(I2
I0
tp576
I2
s(I-3
I2
tp577
I2
s(I-4
I-5
tp578
I1
s(I2
I2
tp579
I4
s(I1
I0
tp580
I1
s(I1
I-1
tp581
I2
s(I-3
I5
tp582
I1
ssF0.0625
(dp583
(I1
I2
tp584
I1
s(I-2
I7
tp585
I1
s(I2
I1
tp586
I1
s(I-1
I-2
tp587
I2
ssF0.25
(dp588
(I2
I-4
tp589
I2
s(I-3
I-2
tp590
I1
s(I3
I2
tp591
I3
s(I2
I1
tp592
I3
s(I-4
I2
tp593
I1
s(I-2
I2
tp594
I3
s(I5
I-5
tp595
I1
s(I1
I-1
tp596
I1
s(I1
I2
tp597
I3
s(I2
I-3
tp598
I1
s(I-5
I1
tp599
I1
s(I7
I-7
tp600
I1
s(I-3
I2
tp601
I1
s(I5
I0
tp602
I1
s(I-2
I-1
tp603
I2
s(I1
I-3
tp604
I1
s(I7
I-12
tp605
I1
s(I5
I4
tp606
I2
s(I-1
I2
tp607
I1
s(I2
I2
tp608
I1
s(I2
I-2
tp609
I5
s(I0
I-5
tp610
I1
s(I-1
I-2
tp611
I3
s(I-3
I7
tp612
I1
s(I2
I3
tp613
I2
s(I-2
I-3
tp614
I6
s(I0
I-2
tp615
I2
s(I-7
I2
tp616
I1
s(I-2
I7
tp617
I2
s(I-3
I5
tp618
I1
s(I-2
I-5
tp619
I1
s(I-1
I12
tp620
I1
s(I2
I-7
tp621
I1
s(I7
I0
tp622
I1
s(I-5
I-7
tp623
I1
s(I-2
I-2
tp624
I4
s(I-7
I12
tp625
I1
s(I0
I-1
tp626
I1
s(I5
I2
tp627
I1
s(I0
I2
tp628
I2
sssa(dp629
S'spine_3'
p630
(dp631
F0.25
(dp632
(I-1
I0
tp633
I6
s(I2
I8
tp634
I1
s(I-2
I-3
tp635
I4
s(I-7
I0
tp636
I1
s(I3
I-1
tp637
I1
s(I2
I-2
tp638
I7
s(I1
I-1
tp639
I1
s(I2
I-4
tp640
I1
s(I1
I2
tp641
I6
s(I2
I-3
tp642
I1
s(I2
I0
tp643
I3
s(I-2
I0
tp644
I1
s(I5
I0
tp645
I1
s(I-2
I-1
tp646
I10
s(I1
I-3
tp647
I1
s(I5
I-2
tp648
I2
s(I3
I2
tp649
I3
s(I0
I0
tp650
I2
s(I7
I1
tp651
I1
s(I-1
I-2
tp652
I11
s(I-2
I-2
tp653
I11
s(I-2
I2
tp654
I18
s(I-1
I1
tp655
I9
s(I2
I2
tp656
I6
s(I-3
I1
tp657
I1
s(I2
I3
tp658
I1
s(I2
I1
tp659
I10
s(I0
I-2
tp660
I19
s(I-7
I2
tp661
I1
s(I0
I4
tp662
I1
s(I1
I0
tp663
I2
s(I2
I-5
tp664
I1
s(I-3
I5
tp665
I1
s(I-2
I12
tp666
I1
s(I-2
I5
tp667
I3
s(I-1
I5
tp668
I1
s(I-1
I3
tp669
I1
s(I-7
I5
tp670
I2
s(I0
I-1
tp671
I3
s(I2
I-12
tp672
I1
s(I3
I-2
tp673
I1
s(I-2
I3
tp674
I10
s(I1
I7
tp675
I1
s(I-2
I4
tp676
I2
s(I0
I2
tp677
I2
ssF1.0
(dp678
(I5
I-1
tp679
I1
s(I12
I1
tp680
I1
s(I-2
I0
tp681
I4
s(I-3
I-2
tp682
I1
s(I3
I-3
tp683
I1
s(I-3
I-4
tp684
I1
s(I2
I1
tp685
I9
s(I7
I-2
tp686
I1
s(I3
I-2
tp687
I1
s(I-2
I5
tp688
I2
s(I-5
I5
tp689
I1
s(I0
I3
tp690
I1
s(I1
I-1
tp691
I2
s(I-1
I0
tp692
I1
s(I1
I2
tp693
I4
s(I-1
I3
tp694
I1
s(I0
I-5
tp695
I2
s(I-5
I1
tp696
I1
s(I2
I-2
tp697
I8
s(I2
I0
tp698
I3
s(I-5
I0
tp699
I2
s(I5
I-3
tp700
I1
s(I-3
I-1
tp701
I2
s(I-3
I2
tp702
I3
s(I-5
I-2
tp703
I1
s(I-2
I-1
tp704
I10
s(I1
I-3
tp705
I1
s(I5
I-2
tp706
I2
s(I0
I1
tp707
I2
s(I3
I2
tp708
I1
s(I0
I0
tp709
I5
s(I5
I0
tp710
I3
s(I7
I1
tp711
I2
s(I-2
I-2
tp712
I14
s(I-2
I2
tp713
I5
s(I1
I4
tp714
I1
s(I-1
I-2
tp715
I9
s(I-3
I1
tp716
I1
s(I7
I5
tp717
I1
s(I0
I5
tp718
I1
s(I-2
I-3
tp719
I4
s(I-7
I2
tp720
I2
s(I8
I2
tp721
I1
s(I-3
I3
tp722
I1
s(I-4
I-1
tp723
I1
s(I12
I0
tp724
I1
s(I-2
I3
tp725
I1
s(I2
I2
tp726
I7
s(I-3
I0
tp727
I3
s(I0
I2
tp728
I6
s(I0
I-7
tp729
I2
s(I0
I-2
tp730
I4
s(I-5
I2
tp731
I3
s(I5
I2
tp732
I1
s(I3
I-1
tp733
I1
s(I12
I-2
tp734
I1
ssF0.0625
(dp735
(I1
I2
tp736
I3
s(I-1
I1
tp737
I1
s(I2
I-2
tp738
I1
s(I-2
I0
tp739
I1
s(I-2
I3
tp740
I1
s(I2
I2
tp741
I2
s(I1
I-5
tp742
I1
s(I-2
I7
tp743
I1
s(I-2
I-1
tp744
I2
s(I-2
I-3
tp745
I1
s(I2
I0
tp746
I2
s(I3
I-1
tp747
I1
s(I2
I-7
tp748
I1
s(I-1
I-2
tp749
I2
s(I4
I5
tp750
I1
s(I1
I0
tp751
I1
s(I2
I-5
tp752
I1
s(I4
I-2
tp753
I1
ssF0.5
(dp754
(I5
I-1
tp755
I2
s(I-2
I0
tp756
I4
s(I-3
I-1
tp757
I1
s(I2
I1
tp758
I3
s(I-7
I0
tp759
I1
s(I2
I-7
tp760
I1
s(I1
I-1
tp761
I1
s(I4
I-2
tp762
I1
s(I7
I2
tp763
I1
s(I-1
I0
tp764
I1
s(I1
I2
tp765
I7
s(I12
I2
tp766
I1
s(I-1
I1
tp767
I2
s(I2
I-1
tp768
I1
s(I2
I-2
tp769
I6
s(I-2
I7
tp770
I2
s(I-3
I-2
tp771
I1
s(I-7
I7
tp772
I1
s(I3
I0
tp773
I4
s(I-3
I2
tp774
I2
s(I0
I-7
tp775
I2
s(I-5
I-2
tp776
I1
s(I-1
I-2
tp777
I7
s(I1
I-3
tp778
I2
s(I-7
I3
tp779
I1
s(I5
I-2
tp780
I1
s(I0
I0
tp781
I3
s(I5
I0
tp782
I3
s(I2
I2
tp783
I6
s(I-2
I2
tp784
I6
s(I-2
I-1
tp785
I7
s(I-3
I1
tp786
I1
s(I0
I5
tp787
I1
s(I0
I-2
tp788
I4
s(I4
I2
tp789
I1
s(I1
I0
tp790
I3
s(I0
I-3
tp791
I1
s(I0
I1
tp792
I1
s(I-2
I12
tp793
I2
s(I-4
I-1
tp794
I1
s(I-2
I3
tp795
I2
s(I-7
I5
tp796
I1
s(I-2
I-2
tp797
I4
s(I2
I4
tp798
I1
s(I2
I0
tp799
I5
s(I2
I3
tp800
I1
s(I0
I-1
tp801
I2
s(I5
I2
tp802
I1
s(I0
I2
tp803
I2
ssF0.125
(dp804
(I2
I-1
tp805
I1
s(I2
I-4
tp806
I1
s(I1
I-5
tp807
I2
s(I2
I1
tp808
I12
s(I3
I-1
tp809
I2
s(I-1
I5
tp810
I1
s(I3
I-3
tp811
I4
s(I2
I5
tp812
I1
s(I1
I-1
tp813
I4
s(I4
I-2
tp814
I1
s(I-1
I0
tp815
I1
s(I1
I2
tp816
I11
s(I-1
I1
tp817
I1
s(I2
I-2
tp818
I9
s(I3
I-5
tp819
I2
s(I-3
I2
tp820
I2
s(I2
I2
tp821
I12
s(I1
I-3
tp822
I2
s(I0
I-2
tp823
I6
s(I0
I0
tp824
I2
s(I1
I-7
tp825
I1
s(I-1
I-2
tp826
I17
s(I-12
I2
tp827
I1
s(I-2
I2
tp828
I6
s(I2
I-3
tp829
I1
s(I-3
I0
tp830
I1
s(I-2
I-1
tp831
I14
s(I-3
I1
tp832
I1
s(I2
I3
tp833
I1
s(I-4
I0
tp834
I1
s(I4
I2
tp835
I1
s(I1
I0
tp836
I2
s(I-2
I7
tp837
I1
s(I-3
I5
tp838
I1
s(I2
I-7
tp839
I3
s(I-2
I3
tp840
I2
s(I0
I-1
tp841
I1
s(I-2
I-2
tp842
I7
s(I3
I-2
tp843
I2
s(I2
I0
tp844
I2
s(I-2
I4
tp845
I1
s(I2
I12
tp846
I1
sssS'spine_2'
p847
(dp848
F0.5
(dp849
(I-2
I2
tp850
I5
s(I-2
I0
tp851
I2
s(I-3
I-2
tp852
I1
s(I2
I1
tp853
I6
s(I-4
I2
tp854
I2
s(I-2
I5
tp855
I3
s(I-3
I3
tp856
I2
s(I-2
I-7
tp857
I1
s(I1
I-1
tp858
I2
s(I4
I-2
tp859
I2
s(I2
I-4
tp860
I1
s(I1
I2
tp861
I3
s(I-1
I3
tp862
I2
s(I2
I0
tp863
I3
s(I-2
I7
tp864
I3
s(I-7
I7
tp865
I1
s(I3
I0
tp866
I1
s(I0
I-7
tp867
I2
s(I5
I0
tp868
I2
s(I2
I2
tp869
I5
s(I-4
I7
tp870
I1
s(I4
I0
tp871
I1
s(I1
I-12
tp872
I1
s(I0
I-4
tp873
I1
s(I5
I-2
tp874
I3
s(I-3
I-4
tp875
I2
s(I0
I0
tp876
I3
s(I-2
I12
tp877
I3
s(I-2
I-1
tp878
I5
s(I2
I-2
tp879
I5
s(I0
I3
tp880
I1
s(I-1
I-2
tp881
I5
s(I-3
I1
tp882
I3
s(I0
I5
tp883
I1
s(I-2
I-3
tp884
I4
s(I-2
I4
tp885
I2
s(I1
I0
tp886
I2
s(I2
I-5
tp887
I3
s(I5
I-3
tp888
I1
s(I-1
I12
tp889
I1
s(I4
I-4
tp890
I1
s(I7
I0
tp891
I2
s(I-4
I-2
tp892
I1
s(I-2
I3
tp893
I1
s(I-2
I-2
tp894
I5
s(I-3
I0
tp895
I1
s(I-1
I-4
tp896
I1
s(I2
I3
tp897
I1
s(I0
I-2
tp898
I5
s(I-5
I2
tp899
I1
s(I5
I2
tp900
I3
s(I0
I2
tp901
I5
ssF1.0
(dp902
(I5
I-1
tp903
I1
s(I-1
I0
tp904
I1
s(I-3
I-2
tp905
I1
s(I-3
I3
tp906
I2
s(I-2
I-3
tp907
I2
s(I-4
I2
tp908
I4
s(I7
I-2
tp909
I2
s(I0
I0
tp910
I8
s(I-3
I0
tp911
I1
s(I-1
I5
tp912
I1
s(I3
I-3
tp913
I1
s(I12
I-4
tp914
I1
s(I1
I-1
tp915
I1
s(I4
I-2
tp916
I2
s(I7
I2
tp917
I1
s(I-2
I0
tp918
I5
s(I1
I2
tp919
I2
s(I0
I-5
tp920
I1
s(I0
I-3
tp921
I1
s(I2
I-4
tp922
I2
s(I-3
I2
tp923
I2
s(I-5
I-2
tp924
I1
s(I-2
I-2
tp925
I7
s(I1
I-3
tp926
I2
s(I-4
I7
tp927
I1
s(I4
I0
tp928
I1
s(I5
I-2
tp929
I1
s(I2
I-2
tp930
I1
s(I5
I0
tp931
I1
s(I2
I2
tp932
I5
s(I-2
I2
tp933
I3
s(I-5
I5
tp934
I1
s(I2
I-3
tp935
I1
s(I3
I-2
tp936
I1
s(I-2
I-1
tp937
I12
s(I2
I1
tp938
I7
s(I0
I5
tp939
I4
s(I12
I-2
tp940
I1
s(I-2
I4
tp941
I2
s(I-7
I2
tp942
I3
s(I7
I0
tp943
I3
s(I-2
I7
tp944
I1
s(I-5
I3
tp945
I1
s(I-7
I-2
tp946
I1
s(I-4
I-1
tp947
I1
s(I-12
I3
tp948
I1
s(I12
I0
tp949
I2
s(I-5
I-4
tp950
I1
s(I-5
I-7
tp951
I1
s(I-1
I-2
tp952
I8
s(I3
I-1
tp953
I3
s(I2
I0
tp954
I2
s(I0
I-2
tp955
I4
s(I-5
I2
tp956
I2
s(I3
I4
tp957
I1
s(I0
I2
tp958
I5
s(I12
I-1
tp959
I1
ssF0.125
(dp960
(I2
I-4
tp961
I3
s(I3
I0
tp962
I1
s(I2
I1
tp963
I8
s(I-4
I2
tp964
I1
s(I-3
I12
tp965
I1
s(I-1
I5
tp966
I1
s(I3
I-3
tp967
I2
s(I1
I-1
tp968
I3
s(I4
I-2
tp969
I1
s(I4
I0
tp970
I1
s(I1
I2
tp971
I7
s(I-1
I1
tp972
I2
s(I2
I0
tp973
I2
s(I-2
I0
tp974
I3
s(I-3
I-2
tp975
I1
s(I-2
I-2
tp976
I7
s(I5
I-1
tp977
I1
s(I5
I4
tp978
I1
s(I-2
I2
tp979
I9
s(I1
I-7
tp980
I1
s(I2
I2
tp981
I7
s(I2
I-2
tp982
I8
s(I2
I-3
tp983
I3
s(I1
I4
tp984
I1
s(I-2
I-1
tp985
I9
s(I-3
I1
tp986
I1
s(I2
I3
tp987
I1
s(I-4
I0
tp988
I1
s(I0
I4
tp989
I1
s(I3
I-5
tp990
I2
s(I-2
I5
tp991
I1
s(I2
I-7
tp992
I2
s(I-1
I3
tp993
I1
s(I0
I-1
tp994
I2
s(I-1
I-2
tp995
I14
s(I-1
I-4
tp996
I1
s(I0
I-2
tp997
I1
ssF0.0625
(dp998
(I-2
I-5
tp999
I1
s(I1
I2
tp1000
I1
s(I-2
I2
tp1001
I1
s(I-2
I0
tp1002
I1
s(I-3
I-2
tp1003
I1
s(I2
I2
tp1004
I1
s(I2
I-2
tp1005
I4
s(I2
I-5
tp1006
I1
s(I-2
I-2
tp1007
I2
s(I2
I1
tp1008
I3
s(I-1
I-2
tp1009
I4
s(I2
I0
tp1010
I1
s(I2
I3
tp1011
I1
s(I3
I-2
tp1012
I1
s(I1
I7
tp1013
I1
s(I-2
I4
tp1014
I1
s(I1
I-3
tp1015
I2
s(I1
I0
tp1016
I1
s(I1
I-1
tp1017
I2
ssF0.25
(dp1018
(I2
I-4
tp1019
I2
s(I-3
I-2
tp1020
I2
s(I-2
I4
tp1021
I1
s(I2
I1
tp1022
I8
s(I-4
I2
tp1023
I3
s(I-7
I0
tp1024
I1
s(I3
I-1
tp1025
I1
s(I2
I-2
tp1026
I4
s(I0
I3
tp1027
I1
s(I1
I-2
tp1028
I1
s(I-2
I0
tp1029
I4
s(I1
I2
tp1030
I4
s(I-1
I1
tp1031
I7
s(I-1
I-4
tp1032
I1
s(I1
I-1
tp1033
I3
s(I3
I0
tp1034
I1
s(I-3
I2
tp1035
I2
s(I-1
I-2
tp1036
I8
s(I1
I-3
tp1037
I2
s(I5
I-2
tp1038
I2
s(I3
I2
tp1039
I3
s(I0
I0
tp1040
I2
s(I-2
I-1
tp1041
I7
s(I-2
I2
tp1042
I11
s(I2
I-3
tp1043
I1
s(I2
I2
tp1044
I10
s(I-2
I-3
tp1045
I3
s(I7
I-2
tp1046
I1
s(I0
I-1
tp1047
I3
s(I4
I2
tp1048
I1
s(I1
I0
tp1049
I3
s(I-3
I5
tp1050
I2
s(I-2
I12
tp1051
I1
s(I-2
I5
tp1052
I2
s(I-4
I-1
tp1053
I2
s(I-1
I3
tp1054
I1
s(I-2
I-2
tp1055
I9
s(I-7
I12
tp1056
I1
s(I-2
I3
tp1057
I2
s(I0
I-2
tp1058
I11
s(I0
I7
tp1059
I1
s(I0
I2
tp1060
I1
s(I12
I-2
tp1061
I2
sssS'spine_1'
p1062
(dp1063
F0.5
(dp1064
(I-4
I5
tp1065
I1
s(I-2
I2
tp1066
I6
s(I-2
I0
tp1067
I8
s(I3
I0
tp1068
I2
s(I-2
I4
tp1069
I1
s(I2
I1
tp1070
I2
s(I-7
I0
tp1071
I1
s(I-2
I5
tp1072
I3
s(I1
I-1
tp1073
I2
s(I7
I2
tp1074
I1
s(I4
I0
tp1075
I2
s(I1
I2
tp1076
I2
s(I-2
I3
tp1077
I3
s(I-1
I1
tp1078
I1
s(I-1
I0
tp1079
I1
s(I-7
I7
tp1080
I2
s(I-3
I-2
tp1081
I2
s(I5
I0
tp1082
I7
s(I-2
I-2
tp1083
I2
s(I1
I-3
tp1084
I1
s(I0
I-4
tp1085
I1
s(I0
I0
tp1086
I4
s(I2
I2
tp1087
I6
s(I-2
I-1
tp1088
I7
s(I-3
I1
tp1089
I1
s(I-7
I-5
tp1090
I1
s(I0
I5
tp1091
I1
s(I-2
I-3
tp1092
I1
s(I-4
I0
tp1093
I1
s(I1
I0
tp1094
I1
s(I-2
I7
tp1095
I3
s(I-2
I-5
tp1096
I1
s(I-2
I12
tp1097
I1
s(I7
I0
tp1098
I1
s(I0
I-7
tp1099
I5
s(I0
I-1
tp1100
I1
s(I-1
I-2
tp1101
I2
s(I-3
I0
tp1102
I3
s(I2
I0
tp1103
I1
s(I0
I-2
tp1104
I6
s(I0
I2
tp1105
I2
ssF1.0
(dp1106
(I5
I-1
tp1107
I1
s(I-1
I0
tp1108
I3
s(I0
I7
tp1109
I1
s(I-4
I2
tp1110
I1
s(I-7
I0
tp1111
I1
s(I0
I0
tp1112
I16
s(I-2
I5
tp1113
I1
s(I-5
I5
tp1114
I1
s(I-7
I2
tp1115
I2
s(I-7
I7
tp1116
I2
s(I1
I-1
tp1117
I2
s(I7
I2
tp1118
I1
s(I-2
I0
tp1119
I6
s(I-1
I1
tp1120
I1
s(I-5
I1
tp1121
I1
s(I-2
I7
tp1122
I1
s(I7
I-7
tp1123
I1
s(I5
I0
tp1124
I3
s(I-1
I-2
tp1125
I9
s(I4
I0
tp1126
I1
s(I4
I1
tp1127
I1
s(I5
I-2
tp1128
I3
s(I-2
I2
tp1129
I1
s(I2
I2
tp1130
I6
s(I2
I-2
tp1131
I2
s(I2
I-3
tp1132
I2
s(I-2
I-2
tp1133
I10
s(I5
I-7
tp1134
I1
s(I-2
I-3
tp1135
I3
s(I0
I5
tp1136
I5
s(I2
I1
tp1137
I3
s(I0
I-2
tp1138
I10
s(I7
I-4
tp1139
I1
s(I0
I4
tp1140
I2
s(I0
I-3
tp1141
I1
s(I-3
I5
tp1142
I1
s(I-5
I3
tp1143
I1
s(I2
I-7
tp1144
I1
s(I7
I0
tp1145
I8
s(I12
I0
tp1146
I1
s(I0
I-7
tp1147
I2
s(I-2
I-1
tp1148
I6
s(I3
I-1
tp1149
I1
s(I2
I0
tp1150
I1
s(I-3
I1
tp1151
I1
s(I2
I3
tp1152
I1
s(I0
I-1
tp1153
I1
s(I5
I2
tp1154
I2
s(I0
I2
tp1155
I2
s(I12
I-2
tp1156
I1
ssF0.25
(dp1157
(I2
I-4
tp1158
I4
s(I2
I1
tp1159
I3
s(I-4
I2
tp1160
I1
s(I-7
I12
tp1161
I1
s(I2
I-2
tp1162
I4
s(I2
I5
tp1163
I1
s(I4
I-2
tp1164
I1
s(I-2
I0
tp1165
I1
s(I1
I2
tp1166
I3
s(I0
I-5
tp1167
I1
s(I3
I-7
tp1168
I1
s(I2
I0
tp1169
I1
s(I-7
I7
tp1170
I2
s(I-2
I-2
tp1171
I2
s(I-5
I0
tp1172
I1
s(I0
I-2
tp1173
I13
s(I3
I2
tp1174
I1
s(I0
I0
tp1175
I5
s(I-4
I-3
tp1176
I1
s(I2
I2
tp1177
I1
s(I-2
I2
tp1178
I6
s(I-1
I1
tp1179
I3
s(I-1
I-2
tp1180
I7
s(I-4
I0
tp1181
I1
s(I-7
I2
tp1182
I1
s(I1
I0
tp1183
I1
s(I-2
I7
tp1184
I1
s(I3
I5
tp1185
I1
s(I-2
I3
tp1186
I1
s(I-7
I5
tp1187
I1
s(I0
I-1
tp1188
I4
s(I-2
I-1
tp1189
I3
s(I3
I-2
tp1190
I2
s(I-1
I3
tp1191
I3
s(I1
I7
tp1192
I1
s(I-2
I4
tp1193
I2
s(I0
I2
tp1194
I3
ssF0.125
(dp1195
(I-2
I5
tp1196
I1
s(I-3
I-2
tp1197
I1
s(I-2
I-3
tp1198
I1
s(I3
I-1
tp1199
I1
s(I2
I-7
tp1200
I3
s(I2
I5
tp1201
I1
s(I1
I-1
tp1202
I1
s(I1
I2
tp1203
I3
s(I-1
I1
tp1204
I1
s(I2
I-5
tp1205
I1
s(I-1
I-2
tp1206
I4
s(I5
I-2
tp1207
I1
s(I2
I-2
tp1208
I6
s(I2
I2
tp1209
I1
s(I-2
I2
tp1210
I1
s(I1
I0
tp1211
I1
s(I-2
I7
tp1212
I1
s(I7
I0
tp1213
I1
s(I-2
I-1
tp1214
I4
s(I-3
I0
tp1215
I1
s(I2
I0
tp1216
I2
s(I0
I-1
tp1217
I1
sssS'spine_0'
p1218
(dp1219
F0.25
(dp1220
(I2
I-2
tp1221
I5
s(I2
I-4
tp1222
I2
s(I-7
I4
tp1223
I1
s(I3
I0
tp1224
I1
s(I3
I2
tp1225
I2
s(I-2
I-3
tp1226
I2
s(I-12
I0
tp1227
I1
s(I3
I-1
tp1228
I2
s(I-2
I5
tp1229
I3
s(I5
I-5
tp1230
I1
s(I1
I-1
tp1231
I1
s(I7
I2
tp1232
I1
s(I-2
I-1
tp1233
I6
s(I1
I2
tp1234
I6
s(I-2
I3
tp1235
I1
s(I-1
I1
tp1236
I4
s(I-3
I7
tp1237
I1
s(I2
I0
tp1238
I2
s(I4
I-5
tp1239
I1
s(I-3
I2
tp1240
I1
s(I-5
I-2
tp1241
I1
s(I-2
I-2
tp1242
I7
s(I1
I-3
tp1243
I1
s(I4
I1
tp1244
I1
s(I0
I-2
tp1245
I2
s(I5
I-2
tp1246
I1
s(I0
I-1
tp1247
I2
s(I-3
I-4
tp1248
I1
s(I0
I0
tp1249
I1
s(I5
I0
tp1250
I2
s(I7
I1
tp1251
I1
s(I-1
I-2
tp1252
I3
s(I-2
I2
tp1253
I3
s(I-2
I1
tp1254
I1
s(I0
I12
tp1255
I1
s(I-5
I7
tp1256
I2
s(I2
I1
tp1257
I6
s(I7
I5
tp1258
I1
s(I0
I7
tp1259
I1
s(I-4
I0
tp1260
I1
s(I-7
I2
tp1261
I1
s(I0
I4
tp1262
I2
s(I2
I-5
tp1263
I2
s(I-3
I5
tp1264
I1
s(I0
I1
tp1265
I1
s(I-4
I-1
tp1266
I1
s(I12
I0
tp1267
I1
s(I-1
I3
tp1268
I1
s(I-5
I-7
tp1269
I1
s(I2
I2
tp1270
I10
s(I-3
I0
tp1271
I1
s(I-1
I-4
tp1272
I1
s(I-2
I4
tp1273
I2
s(I-5
I2
tp1274
I2
s(I-5
I-4
tp1275
I1
s(I0
I2
tp1276
I7
ssF1.0
(dp1277
(I5
I-2
tp1278
I3
s(I2
I-4
tp1279
I2
s(I3
I0
tp1280
I1
s(I5
I4
tp1281
I1
s(I-2
I-3
tp1282
I7
s(I-4
I2
tp1283
I2
s(I7
I-2
tp1284
I4
s(I-3
I0
tp1285
I5
s(I-2
I5
tp1286
I1
s(I-5
I5
tp1287
I1
s(I4
I-2
tp1288
I2
s(I7
I2
tp1289
I1
s(I-2
I0
tp1290
I1
s(I1
I2
tp1291
I7
s(I0
I-5
tp1292
I2
s(I-5
I1
tp1293
I2
s(I2
I0
tp1294
I2
s(I-2
I7
tp1295
I2
s(I7
I-7
tp1296
I1
s(I-3
I-2
tp1297
I4
s(I-3
I2
tp1298
I1
s(I-3
I7
tp1299
I1
s(I5
I0
tp1300
I2
s(I2
I2
tp1301
I5
s(I1
I-3
tp1302
I2
s(I4
I1
tp1303
I1
s(I-5
I0
tp1304
I1
s(I0
I-1
tp1305
I1
s(I3
I2
tp1306
I1
s(I0
I0
tp1307
I6
s(I-3
I-4
tp1308
I1
s(I-2
I-1
tp1309
I4
s(I-2
I2
tp1310
I2
s(I-5
I12
tp1311
I1
s(I-1
I-2
tp1312
I3
s(I-3
I1
tp1313
I1
s(I-7
I-5
tp1314
I1
s(I0
I5
tp1315
I2
s(I2
I1
tp1316
I5
s(I-7
I0
tp1317
I1
s(I-4
I0
tp1318
I1
s(I-7
I2
tp1319
I3
s(I4
I2
tp1320
I1
s(I2
I-5
tp1321
I2
s(I-5
I3
tp1322
I1
s(I-3
I-5
tp1323
I1
s(I-1
I12
tp1324
I1
s(I-7
I-2
tp1325
I2
s(I7
I0
tp1326
I1
s(I-4
I-1
tp1327
I1
s(I12
I-5
tp1328
I1
s(I12
I0
tp1329
I3
s(I0
I-7
tp1330
I1
s(I-7
I5
tp1331
I1
s(I-5
I-7
tp1332
I3
s(I-2
I-2
tp1333
I4
s(I3
I-1
tp1334
I1
s(I-1
I3
tp1335
I2
s(I0
I-2
tp1336
I6
s(I-5
I2
tp1337
I1
s(I0
I2
tp1338
I6
ssF0.0625
(dp1339
(I1
I2
tp1340
I3
s(I-2
I5
tp1341
I1
s(I-2
I0
tp1342
I1
s(I-2
I7
tp1343
I1
s(I-1
I-2
tp1344
I1
s(I2
I1
tp1345
I1
s(I2
I-7
tp1346
I1
s(I2
I2
tp1347
I1
s(I2
I-5
tp1348
I1
ssF0.5
(dp1349
(I5
I-2
tp1350
I3
s(I-1
I0
tp1351
I1
s(I-7
I-7
tp1352
I1
s(I-2
I-3
tp1353
I8
s(I-7
I0
tp1354
I2
s(I-3
I0
tp1355
I2
s(I2
I-7
tp1356
I1
s(I0
I3
tp1357
I2
s(I7
I2
tp1358
I1
s(I-2
I0
tp1359
I1
s(I1
I2
tp1360
I2
s(I-1
I1
tp1361
I1
s(I-3
I7
tp1362
I1
s(I2
I-2
tp1363
I5
s(I2
I0
tp1364
I3
s(I-2
I7
tp1365
I2
s(I-3
I-12
tp1366
I1
s(I2
I-4
tp1367
I1
s(I0
I-7
tp1368
I3
s(I5
I0
tp1369
I1
s(I-2
I-1
tp1370
I4
s(I12
I-3
tp1371
I1
s(I1
I-3
tp1372
I5
s(I-4
I7
tp1373
I1
s(I-5
I0
tp1374
I2
s(I-2
I-5
tp1375
I1
s(I0
I0
tp1376
I3
s(I7
I1
tp1377
I1
s(I-2
I-2
tp1378
I2
s(I-2
I2
tp1379
I3
s(I-5
I12
tp1380
I1
s(I2
I2
tp1381
I2
s(I0
I5
tp1382
I2
s(I2
I1
tp1383
I6
s(I0
I-1
tp1384
I1
s(I7
I-4
tp1385
I1
s(I1
I0
tp1386
I2
s(I2
I-5
tp1387
I3
s(I-5
I3
tp1388
I2
s(I-4
I-1
tp1389
I1
s(I0
I1
tp1390
I1
s(I-2
I12
tp1391
I1
s(I-2
I5
tp1392
I1
s(I7
I0
tp1393
I1
s(I-4
I-2
tp1394
I1
s(I12
I0
tp1395
I1
s(I-1
I3
tp1396
I1
s(I0
I-3
tp1397
I1
s(I0
I-2
tp1398
I1
s(I-1
I-2
tp1399
I2
s(I-7
I12
tp1400
I2
s(I-1
I-4
tp1401
I1
s(I-7
I5
tp1402
I2
s(I-2
I4
tp1403
I1
s(I5
I2
tp1404
I1
s(I0
I2
tp1405
I2
ssF0.125
(dp1406
(I-2
I0
tp1407
I1
s(I3
I0
tp1408
I1
s(I-3
I3
tp1409
I1
s(I2
I1
tp1410
I5
s(I7
I-2
tp1411
I1
s(I2
I-7
tp1412
I3
s(I5
I-5
tp1413
I1
s(I3
I7
tp1414
I1
s(I-2
I-7
tp1415
I1
s(I4
I-2
tp1416
I1
s(I1
I2
tp1417
I10
s(I-1
I1
tp1418
I3
s(I-3
I7
tp1419
I2
s(I-3
I5
tp1420
I2
s(I-1
I-2
tp1421
I7
s(I1
I-3
tp1422
I2
s(I5
I-2
tp1423
I2
s(I1
I-7
tp1424
I1
s(I-2
I-2
tp1425
I2
s(I2
I-2
tp1426
I8
s(I-2
I-1
tp1427
I7
s(I-3
I1
tp1428
I1
s(I-4
I0
tp1429
I1
s(I2
I-5
tp1430
I3
s(I3
I-5
tp1431
I2
s(I5
I3
tp1432
I1
s(I-4
I-2
tp1433
I1
s(I2
I2
tp1434
I3
s(I2
I0
tp1435
I1
sssa(dp1436
S'spine_3'
p1437
(dp1438
F0.5
(dp1439
(I5
I-1
tp1440
I1
s(I-2
I0
tp1441
I7
s(I-3
I-2
tp1442
I4
s(I-2
I-12
tp1443
I1
s(I1
I-5
tp1444
I2
s(I-2
I4
tp1445
I1
s(I2
I1
tp1446
I8
s(I-4
I2
tp1447
I1
s(I-7
I12
tp1448
I2
s(I2
I-2
tp1449
I4
s(I1
I-1
tp1450
I3
s(I7
I2
tp1451
I1
s(I4
I0
tp1452
I1
s(I1
I2
tp1453
I4
s(I-2
I3
tp1454
I2
s(I-1
I1
tp1455
I3
s(I-2
I2
tp1456
I8
s(I3
I0
tp1457
I2
s(I-7
I7
tp1458
I1
s(I-3
I-1
tp1459
I1
s(I0
I-7
tp1460
I2
s(I5
I0
tp1461
I2
s(I-1
I-2
tp1462
I5
s(I1
I-3
tp1463
I2
s(I5
I-2
tp1464
I1
s(I0
I0
tp1465
I5
s(I7
I1
tp1466
I1
s(I-4
I-3
tp1467
I1
s(I-2
I-2
tp1468
I2
s(I2
I-1
tp1469
I1
s(I2
I-3
tp1470
I1
s(I-2
I-1
tp1471
I6
s(I-3
I1
tp1472
I2
s(I0
I5
tp1473
I1
s(I-2
I-3
tp1474
I1
s(I-4
I0
tp1475
I1
s(I-7
I2
tp1476
I2
s(I1
I0
tp1477
I3
s(I-2
I7
tp1478
I1
s(I-3
I5
tp1479
I1
s(I-2
I-5
tp1480
I1
s(I-2
I12
tp1481
I1
s(I-2
I5
tp1482
I1
s(I-4
I-1
tp1483
I1
s(I-1
I3
tp1484
I1
s(I0
I-1
tp1485
I4
s(I2
I2
tp1486
I6
s(I-3
I0
tp1487
I2
s(I2
I0
tp1488
I1
s(I2
I3
tp1489
I1
s(I0
I-2
tp1490
I5
s(I0
I7
tp1491
I1
s(I0
I2
tp1492
I2
ssF1.0
(dp1493
(I5
I-1
tp1494
I1
s(I-2
I0
tp1495
I7
s(I-3
I-2
tp1496
I6
s(I-2
I-3
tp1497
I6
s(I-3
I12
tp1498
I1
s(I3
I-2
tp1499
I4
s(I-2
I5
tp1500
I2
s(I1
I-1
tp1501
I4
s(I4
I-2
tp1502
I1
s(I7
I2
tp1503
I1
s(I-1
I0
tp1504
I4
s(I1
I2
tp1505
I5
s(I12
I2
tp1506
I1
s(I2
I-3
tp1507
I3
s(I-5
I1
tp1508
I1
s(I2
I-2
tp1509
I5
s(I0
I-3
tp1510
I2
s(I5
I-2
tp1511
I5
s(I3
I0
tp1512
I2
s(I-3
I2
tp1513
I2
s(I-5
I-2
tp1514
I1
s(I2
I2
tp1515
I7
s(I4
I0
tp1516
I1
s(I4
I1
tp1517
I1
s(I12
I3
tp1518
I1
s(I-5
I0
tp1519
I4
s(I0
I-2
tp1520
I10
s(I3
I2
tp1521
I2
s(I0
I0
tp1522
I13
s(I5
I0
tp1523
I2
s(I7
I1
tp1524
I1
s(I-1
I-2
tp1525
I12
s(I-2
I2
tp1526
I6
s(I-1
I1
tp1527
I2
s(I-2
I-2
tp1528
I10
s(I0
I5
tp1529
I1
s(I2
I1
tp1530
I7
s(I-4
I0
tp1531
I1
s(I-7
I2
tp1532
I2
s(I0
I4
tp1533
I1
s(I-2
I7
tp1534
I1
s(I0
I1
tp1535
I1
s(I7
I0
tp1536
I4
s(I-4
I-1
tp1537
I1
s(I-12
I3
tp1538
I1
s(I0
I-7
tp1539
I2
s(I0
I-1
tp1540
I1
s(I-2
I-1
tp1541
I8
s(I3
I-1
tp1542
I1
s(I2
I0
tp1543
I2
s(I4
I3
tp1544
I1
s(I-2
I4
tp1545
I1
s(I-5
I2
tp1546
I1
s(I5
I2
tp1547
I2
s(I0
I2
tp1548
I7
s(I-1
I3
tp1549
I1
ssF0.0625
(dp1550
(I1
I2
tp1551
I3
s(I5
I-2
tp1552
I1
s(I2
I-3
tp1553
I2
s(I2
I-2
tp1554
I3
s(I-2
I0
tp1555
I4
s(I-2
I3
tp1556
I3
s(I2
I2
tp1557
I1
s(I-2
I2
tp1558
I1
s(I-1
I-2
tp1559
I2
s(I3
I-1
tp1560
I1
s(I0
I1
tp1561
I1
s(I2
I0
tp1562
I1
s(I2
I1
tp1563
I2
s(I2
I-7
tp1564
I1
s(I-2
I-1
tp1565
I1
s(I1
I-3
tp1566
I3
s(I1
I0
tp1567
I1
s(I0
I-1
tp1568
I3
s(I-3
I-2
tp1569
I1
s(I3
I0
tp1570
I2
s(I0
I-2
tp1571
I1
ssF0.25
(dp1572
(I2
I-2
tp1573
I12
s(I-2
I0
tp1574
I4
s(I-3
I-2
tp1575
I2
s(I1
I-5
tp1576
I2
s(I-2
I-3
tp1577
I2
s(I-7
I0
tp1578
I1
s(I-2
I5
tp1579
I3
s(I0
I3
tp1580
I1
s(I1
I-2
tp1581
I2
s(I2
I-4
tp1582
I4
s(I1
I2
tp1583
I11
s(I12
I2
tp1584
I1
s(I-1
I1
tp1585
I16
s(I1
I-1
tp1586
I3
s(I-1
I0
tp1587
I3
s(I-7
I7
tp1588
I1
s(I1
I5
tp1589
I2
s(I-3
I2
tp1590
I1
s(I-2
I-2
tp1591
I10
s(I1
I-3
tp1592
I1
s(I12
I3
tp1593
I1
s(I3
I2
tp1594
I1
s(I0
I0
tp1595
I3
s(I-4
I-3
tp1596
I1
s(I-2
I-1
tp1597
I17
s(I-2
I2
tp1598
I19
s(I2
I-3
tp1599
I1
s(I-1
I-2
tp1600
I11
s(I0
I5
tp1601
I2
s(I2
I1
tp1602
I14
s(I0
I-2
tp1603
I7
s(I0
I4
tp1604
I1
s(I1
I0
tp1605
I4
s(I0
I1
tp1606
I1
s(I2
I-7
tp1607
I1
s(I-4
I-1
tp1608
I1
s(I-1
I3
tp1609
I3
s(I2
I2
tp1610
I6
s(I-2
I3
tp1611
I6
s(I-1
I5
tp1612
I3
s(I1
I7
tp1613
I2
s(I0
I-1
tp1614
I8
s(I5
I2
tp1615
I3
s(I0
I2
tp1616
I3
s(I12
I-2
tp1617
I1
ssF0.125
(dp1618
(I-3
I0
tp1619
I1
s(I-2
I0
tp1620
I2
s(I-3
I-2
tp1621
I3
s(I1
I-5
tp1622
I1
s(I2
I1
tp1623
I13
s(I3
I-1
tp1624
I2
s(I2
I-7
tp1625
I2
s(I3
I-3
tp1626
I1
s(I-3
I-7
tp1627
I1
s(I2
I5
tp1628
I1
s(I1
I-1
tp1629
I8
s(I-1
I0
tp1630
I1
s(I1
I2
tp1631
I8
s(I-1
I1
tp1632
I4
s(I3
I3
tp1633
I1
s(I2
I-4
tp1634
I4
s(I-3
I5
tp1635
I2
s(I3
I0
tp1636
I1
s(I-3
I2
tp1637
I1
s(I-2
I-1
tp1638
I10
s(I1
I-3
tp1639
I2
s(I5
I-2
tp1640
I2
s(I3
I2
tp1641
I2
s(I2
I-2
tp1642
I6
s(I2
I2
tp1643
I10
s(I-2
I2
tp1644
I5
s(I2
I-3
tp1645
I2
s(I-1
I-2
tp1646
I20
s(I0
I-2
tp1647
I3
s(I1
I0
tp1648
I1
s(I3
I-5
tp1649
I1
s(I-2
I12
tp1650
I1
s(I-2
I3
tp1651
I1
s(I0
I-1
tp1652
I4
s(I-2
I-2
tp1653
I4
s(I3
I-2
tp1654
I1
s(I2
I0
tp1655
I5
s(I1
I7
tp1656
I1
s(I-2
I4
tp1657
I1
s(I0
I2
tp1658
I1
sssS'spine_2'
p1659
(dp1660
F0.25
(dp1661
(I2
I-2
tp1662
I7
s(I-1
I0
tp1663
I1
s(I-3
I-2
tp1664
I1
s(I1
I-5
tp1665
I2
s(I-2
I4
tp1666
I2
s(I2
I1
tp1667
I9
s(I-4
I2
tp1668
I2
s(I-7
I0
tp1669
I1
s(I-3
I0
tp1670
I1
s(I-2
I5
tp1671
I1
s(I1
I-1
tp1672
I5
s(I4
I-2
tp1673
I2
s(I2
I-4
tp1674
I3
s(I1
I2
tp1675
I13
s(I-2
I3
tp1676
I1
s(I2
I-3
tp1677
I1
s(I-3
I7
tp1678
I1
s(I-2
I2
tp1679
I9
s(I-2
I0
tp1680
I1
s(I-7
I7
tp1681
I1
s(I-3
I2
tp1682
I1
s(I-1
I-2
tp1683
I9
s(I12
I-3
tp1684
I1
s(I1
I-3
tp1685
I3
s(I0
I-4
tp1686
I1
s(I0
I1
tp1687
I5
s(I3
I2
tp1688
I1
s(I0
I0
tp1689
I1
s(I1
I-7
tp1690
I1
s(I-4
I-3
tp1691
I1
s(I-2
I-2
tp1692
I10
s(I-1
I2
tp1693
I1
s(I-2
I-1
tp1694
I11
s(I-1
I1
tp1695
I6
s(I2
I2
tp1696
I13
s(I-3
I1
tp1697
I2
s(I-5
I1
tp1698
I1
s(I0
I5
tp1699
I1
s(I-2
I-3
tp1700
I4
s(I0
I-1
tp1701
I5
s(I-1
I3
tp1702
I1
s(I1
I0
tp1703
I1
s(I2
I-5
tp1704
I1
s(I2
I7
tp1705
I2
s(I-2
I12
tp1706
I1
s(I2
I-7
tp1707
I3
s(I-4
I4
tp1708
I2
s(I7
I0
tp1709
I1
s(I12
I0
tp1710
I1
s(I0
I-7
tp1711
I1
s(I2
I-12
tp1712
I1
s(I3
I-2
tp1713
I1
s(I2
I0
tp1714
I6
s(I0
I-2
tp1715
I15
s(I5
I2
tp1716
I1
s(I0
I2
tp1717
I4
s(I12
I-2
tp1718
I1
ssF1.0
(dp1719
(I2
I-2
tp1720
I6
s(I2
I-4
tp1721
I1
s(I-3
I-2
tp1722
I7
s(I-3
I3
tp1723
I1
s(I3
I2
tp1724
I3
s(I-2
I-3
tp1725
I4
s(I-4
I2
tp1726
I2
s(I-7
I0
tp1727
I4
s(I3
I-1
tp1728
I1
s(I-2
I5
tp1729
I1
s(I-5
I5
tp1730
I2
s(I0
I3
tp1731
I1
s(I1
I-1
tp1732
I2
s(I4
I-2
tp1733
I2
s(I7
I2
tp1734
I1
s(I-2
I0
tp1735
I3
s(I1
I2
tp1736
I8
s(I12
I2
tp1737
I1
s(I0
I-5
tp1738
I1
s(I-1
I0
tp1739
I1
s(I-7
I7
tp1740
I1
s(I-3
I2
tp1741
I1
s(I0
I-7
tp1742
I2
s(I-5
I-2
tp1743
I1
s(I-2
I-1
tp1744
I12
s(I7
I-3
tp1745
I1
s(I4
I1
tp1746
I2
s(I5
I-2
tp1747
I3
s(I-3
I-4
tp1748
I1
s(I0
I0
tp1749
I8
s(I5
I0
tp1750
I2
s(I-4
I-3
tp1751
I1
s(I-2
I-2
tp1752
I11
s(I-2
I2
tp1753
I9
s(I1
I4
tp1754
I1
s(I2
I2
tp1755
I13
s(I-3
I1
tp1756
I3
s(I7
I5
tp1757
I1
s(I0
I5
tp1758
I1
s(I2
I1
tp1759
I6
s(I7
I-2
tp1760
I1
s(I-7
I2
tp1761
I2
s(I7
I0
tp1762
I3
s(I2
I-5
tp1763
I1
s(I-5
I2
tp1764
I3
s(I-2
I-5
tp1765
I1
s(I-2
I12
tp1766
I1
s(I-1
I5
tp1767
I1
s(I-7
I-2
tp1768
I1
s(I-4
I-1
tp1769
I2
s(I-1
I3
tp1770
I1
s(I-7
I5
tp1771
I2
s(I-1
I-2
tp1772
I6
s(I-3
I0
tp1773
I1
s(I-2
I3
tp1774
I1
s(I0
I-2
tp1775
I7
s(I0
I7
tp1776
I2
s(I-4
I12
tp1777
I1
s(I5
I2
tp1778
I2
s(I0
I2
tp1779
I4
s(I-3
I12
tp1780
I2
s(I12
I-2
tp1781
I2
ssF0.0625
(dp1782
(I2
I-2
tp1783
I5
s(I2
I-4
tp1784
I4
s(I-3
I-2
tp1785
I1
s(I2
I1
tp1786
I3
s(I-4
I2
tp1787
I1
s(I2
I12
tp1788
I1
s(I-2
I5
tp1789
I1
s(I1
I-1
tp1790
I1
s(I4
I-2
tp1791
I1
s(I-2
I0
tp1792
I3
s(I1
I2
tp1793
I3
s(I2
I-3
tp1794
I2
s(I-2
I7
tp1795
I2
s(I-1
I0
tp1796
I1
s(I-7
I7
tp1797
I1
s(I5
I0
tp1798
I1
s(I-2
I-1
tp1799
I2
s(I1
I-3
tp1800
I1
s(I-3
I-4
tp1801
I1
s(I0
I0
tp1802
I2
s(I-2
I-2
tp1803
I1
s(I-2
I2
tp1804
I1
s(I-1
I1
tp1805
I1
s(I1
I4
tp1806
I1
s(I-1
I-2
tp1807
I3
s(I-3
I1
tp1808
I1
s(I-2
I-3
tp1809
I1
s(I0
I-3
tp1810
I1
s(I-4
I-1
tp1811
I1
s(I-2
I12
tp1812
I1
s(I-1
I5
tp1813
I1
s(I2
I-7
tp1814
I1
s(I12
I0
tp1815
I1
s(I0
I-7
tp1816
I1
s(I2
I2
tp1817
I3
s(I-2
I-4
tp1818
I1
s(I0
I-2
tp1819
I3
s(I0
I2
tp1820
I1
ssF0.5
(dp1821
(I-2
I2
tp1822
I9
s(I-2
I0
tp1823
I5
s(I-3
I-1
tp1824
I1
s(I-2
I-3
tp1825
I3
s(I7
I-2
tp1826
I1
s(I-2
I5
tp1827
I3
s(I5
I1
tp1828
I1
s(I-2
I-7
tp1829
I1
s(I1
I-1
tp1830
I1
s(I4
I-2
tp1831
I2
s(I2
I-4
tp1832
I2
s(I1
I2
tp1833
I7
s(I-2
I3
tp1834
I4
s(I2
I-3
tp1835
I4
s(I-3
I7
tp1836
I1
s(I2
I-2
tp1837
I2
s(I2
I0
tp1838
I3
s(I-1
I0
tp1839
I1
s(I-3
I-2
tp1840
I2
s(I5
I0
tp1841
I2
s(I2
I2
tp1842
I3
s(I5
I-2
tp1843
I1
s(I3
I2
tp1844
I1
s(I0
I0
tp1845
I7
s(I7
I1
tp1846
I1
s(I-4
I-3
tp1847
I1
s(I-12
I2
tp1848
I1
s(I-1
I-2
tp1849
I4
s(I-1
I1
tp1850
I5
s(I1
I4
tp1851
I1
s(I-2
I-1
tp1852
I3
s(I-3
I1
tp1853
I3
s(I0
I5
tp1854
I1
s(I2
I1
tp1855
I6
s(I-4
I0
tp1856
I1
s(I-7
I2
tp1857
I3
s(I1
I0
tp1858
I3
s(I-2
I7
tp1859
I3
s(I5
I-3
tp1860
I1
s(I-1
I5
tp1861
I1
s(I-4
I4
tp1862
I1
s(I7
I0
tp1863
I4
s(I-4
I-1
tp1864
I3
s(I12
I0
tp1865
I1
s(I0
I-7
tp1866
I1
s(I0
I-2
tp1867
I9
s(I-2
I-2
tp1868
I6
s(I-3
I0
tp1869
I2
s(I-1
I-4
tp1870
I1
s(I0
I-1
tp1871
I1
s(I5
I2
tp1872
I4
s(I0
I2
tp1873
I2
ssF0.125
(dp1874
(I5
I-2
tp1875
I1
s(I2
I-4
tp1876
I4
s(I3
I0
tp1877
I1
s(I2
I1
tp1878
I5
s(I-3
I0
tp1879
I1
s(I-2
I2
tp1880
I5
s(I-1
I0
tp1881
I1
s(I1
I2
tp1882
I9
s(I-1
I1
tp1883
I3
s(I3
I3
tp1884
I1
s(I-2
I0
tp1885
I4
s(I-2
I-1
tp1886
I11
s(I1
I-3
tp1887
I5
s(I5
I-1
tp1888
I1
s(I3
I2
tp1889
I1
s(I0
I0
tp1890
I1
s(I2
I2
tp1891
I14
s(I2
I-2
tp1892
I6
s(I2
I-3
tp1893
I5
s(I-1
I-2
tp1894
I14
s(I-3
I1
tp1895
I5
s(I-2
I-3
tp1896
I2
s(I2
I-5
tp1897
I1
s(I-3
I5
tp1898
I2
s(I-2
I12
tp1899
I1
s(I2
I-7
tp1900
I5
s(I-2
I3
tp1901
I1
s(I-2
I-2
tp1902
I10
s(I3
I-2
tp1903
I1
s(I2
I0
tp1904
I9
s(I0
I-2
tp1905
I1
s(I3
I4
tp1906
I1
sssS'spine_1'
p1907
(dp1908
F0.5
(dp1909
(I2
I-2
tp1910
I3
s(I-2
I0
tp1911
I8
s(I3
I0
tp1912
I2
s(I-2
I4
tp1913
I2
s(I2
I1
tp1914
I10
s(I-4
I2
tp1915
I1
s(I7
I-1
tp1916
I1
s(I3
I-2
tp1917
I1
s(I2
I-7
tp1918
I1
s(I5
I-5
tp1919
I2
s(I1
I-1
tp1920
I1
s(I-1
I0
tp1921
I2
s(I1
I2
tp1922
I3
s(I-2
I3
tp1923
I3
s(I9
I0
tp1924
I1
s(I2
I-5
tp1925
I3
s(I2
I-4
tp1926
I2
s(I-7
I7
tp1927
I2
s(I-3
I2
tp1928
I1
s(I5
I0
tp1929
I3
s(I2
I2
tp1930
I8
s(I1
I-3
tp1931
I4
s(I4
I0
tp1932
I1
s(I0
I-4
tp1933
I1
s(I5
I-2
tp1934
I2
s(I0
I0
tp1935
I13
s(I-4
I-3
tp1936
I1
s(I-12
I2
tp1937
I1
s(I-2
I2
tp1938
I5
s(I-2
I-1
tp1939
I8
s(I-3
I-5
tp1940
I1
s(I-1
I-2
tp1941
I3
s(I2
I3
tp1942
I1
s(I-2
I-3
tp1943
I6
s(I-4
I0
tp1944
I1
s(I-7
I2
tp1945
I2
s(I7
I0
tp1946
I3
s(I1
I0
tp1947
I1
s(I0
I12
tp1948
I1
s(I-2
I7
tp1949
I2
s(I5
I3
tp1950
I1
s(I-2
I12
tp1951
I1
s(I-2
I5
tp1952
I2
s(I-7
I-1
tp1953
I1
s(I0
I-7
tp1954
I3
s(I0
I-1
tp1955
I1
s(I-2
I-2
tp1956
I1
s(I-3
I0
tp1957
I3
s(I2
I0
tp1958
I2
s(I0
I-2
tp1959
I6
s(I0
I2
tp1960
I3
ssF1.0
(dp1961
(I5
I-2
tp1962
I3
s(I12
I0
tp1963
I1
s(I-1
I0
tp1964
I3
s(I-7
I4
tp1965
I1
s(I-3
I-2
tp1966
I5
s(I-7
I-7
tp1967
I1
s(I2
I1
tp1968
I12
s(I-4
I2
tp1969
I3
s(I-7
I0
tp1970
I2
s(I0
I0
tp1971
I16
s(I-3
I0
tp1972
I3
s(I-1
I5
tp1973
I1
s(I-3
I3
tp1974
I1
s(I12
I-4
tp1975
I1
s(I1
I-1
tp1976
I1
s(I4
I-2
tp1977
I2
s(I-2
I0
tp1978
I3
s(I1
I2
tp1979
I4
s(I-1
I1
tp1980
I2
s(I-5
I1
tp1981
I1
s(I2
I0
tp1982
I1
s(I-2
I7
tp1983
I1
s(I2
I-4
tp1984
I1
s(I-7
I7
tp1985
I1
s(I-3
I2
tp1986
I1
s(I-2
I-1
tp1987
I7
s(I-4
I7
tp1988
I1
s(I4
I0
tp1989
I1
s(I0
I-4
tp1990
I1
s(I-5
I0
tp1991
I3
s(I0
I-2
tp1992
I8
s(I-2
I2
tp1993
I2
s(I-2
I-2
tp1994
I12
s(I2
I-5
tp1995
I1
s(I2
I-2
tp1996
I7
s(I-5
I12
tp1997
I1
s(I0
I-5
tp1998
I1
s(I2
I2
tp1999
I7
s(I-3
I1
tp2000
I3
s(I3
I9
tp2001
I1
s(I0
I5
tp2002
I4
s(I-2
I-3
tp2003
I2
s(I-4
I0
tp2004
I1
s(I-7
I2
tp2005
I1
s(I1
I0
tp2006
I1
s(I0
I-3
tp2007
I1
s(I-3
I5
tp2008
I1
s(I-2
I-5
tp2009
I1
s(I-2
I5
tp2010
I2
s(I7
I0
tp2011
I9
s(I-4
I-1
tp2012
I1
s(I-5
I7
tp2013
I2
s(I0
I-7
tp2014
I3
s(I5
I2
tp2015
I2
s(I0
I-1
tp2016
I1
s(I-1
I-2
tp2017
I10
s(I3
I-1
tp2018
I2
s(I-1
I-4
tp2019
I1
s(I-2
I4
tp2020
I2
s(I0
I7
tp2021
I1
s(I-5
I-4
tp2022
I1
s(I0
I2
tp2023
I4
s(I12
I-2
tp2024
I2
ssF0.25
(dp2025
(I2
I-4
tp2026
I4
s(I3
I0
tp2027
I1
s(I1
I-5
tp2028
I1
s(I2
I1
tp2029
I6
s(I-4
I2
tp2030
I1
s(I-7
I12
tp2031
I1
s(I-2
I2
tp2032
I12
s(I-5
I5
tp2033
I2
s(I2
I5
tp2034
I1
s(I1
I-1
tp2035
I1
s(I0
I3
tp2036
I1
s(I-2
I0
tp2037
I2
s(I1
I2
tp2038
I8
s(I-1
I1
tp2039
I4
s(I-1
I-4
tp2040
I1
s(I-5
I3
tp2041
I1
s(I-3
I2
tp2042
I6
s(I5
I0
tp2043
I1
s(I-2
I-2
tp2044
I4
s(I1
I-3
tp2045
I4
s(I4
I1
tp2046
I1
s(I-5
I2
tp2047
I2
s(I3
I2
tp2048
I1
s(I0
I0
tp2049
I7
s(I7
I1
tp2050
I2
s(I-1
I-2
tp2051
I10
s(I2
I2
tp2052
I4
s(I2
I-2
tp2053
I6
s(I-2
I-1
tp2054
I4
s(I-2
I-3
tp2055
I1
s(I0
I-2
tp2056
I11
s(I-7
I2
tp2057
I3
s(I5
I-3
tp2058
I1
s(I0
I1
tp2059
I1
s(I-1
I12
tp2060
I1
s(I-4
I-1
tp2061
I1
s(I-1
I3
tp2062
I2
s(I2
I-12
tp2063
I1
s(I3
I-2
tp2064
I1
s(I2
I0
tp2065
I2
s(I0
I-1
tp2066
I4
s(I0
I7
tp2067
I1
s(I5
I2
tp2068
I1
s(I0
I2
tp2069
I8
ssF0.0625
(dp2070
(I1
I2
tp2071
I2
s(I2
I-3
tp2072
I1
s(I-2
I2
tp2073
I1
s(I-2
I0
tp2074
I1
s(I-4
I2
tp2075
I1
s(I3
I0
tp2076
I1
s(I-2
I7
tp2077
I1
s(I2
I-2
tp2078
I1
s(I12
I-7
tp2079
I1
s(I2
I2
tp2080
I2
s(I2
I1
tp2081
I1
s(I-7
I7
tp2082
I1
s(I-2
I3
tp2083
I1
s(I0
I0
tp2084
I2
s(I2
I-5
tp2085
I2
s(I3
I-1
tp2086
I1
s(I2
I-7
tp2087
I1
s(I-1
I-2
tp2088
I1
s(I1
I-1
tp2089
I1
s(I-5
I3
tp2090
I1
s(I-2
I-1
tp2091
I1
ssF0.125
(dp2092
(I-2
I0
tp2093
I2
s(I2
I1
tp2094
I6
s(I-4
I2
tp2095
I1
s(I2
I-7
tp2096
I6
s(I-3
I3
tp2097
I1
s(I2
I5
tp2098
I1
s(I1
I-1
tp2099
I4
s(I1
I2
tp2100
I9
s(I-1
I1
tp2101
I1
s(I2
I-5
tp2102
I2
s(I-3
I2
tp2103
I1
s(I-2
I-1
tp2104
I5
s(I1
I-3
tp2105
I4
s(I3
I2
tp2106
I1
s(I-2
I2
tp2107
I1
s(I-1
I-2
tp2108
I5
s(I2
I-2
tp2109
I5
s(I-2
I-2
tp2110
I4
s(I-2
I-3
tp2111
I2
s(I0
I-1
tp2112
I1
s(I-2
I7
tp2113
I1
s(I-2
I5
tp2114
I2
s(I2
I2
tp2115
I4
s(I3
I-2
tp2116
I1
s(I2
I0
tp2117
I3
s(I1
I7
tp2118
I1
s(I0
I-2
tp2119
I1
s(I5
I2
tp2120
I1
sssS'spine_0'
p2121
(dp2122
F0.5
(dp2123
(I5
I-2
tp2124
I2
s(I12
I1
tp2125
I1
s(I-2
I0
tp2126
I2
s(I7
I-7
tp2127
I1
s(I-2
I-12
tp2128
I1
s(I5
I-5
tp2129
I1
s(I-7
I-7
tp2130
I1
s(I2
I1
tp2131
I5
s(I-7
I2
tp2132
I1
s(I-7
I0
tp2133
I6
s(I3
I-1
tp2134
I1
s(I-2
I5
tp2135
I1
s(I-5
I5
tp2136
I3
s(I-2
I-7
tp2137
I1
s(I12
I-4
tp2138
I1
s(I2
I-4
tp2139
I3
s(I1
I2
tp2140
I4
s(I-1
I3
tp2141
I1
s(I-5
I1
tp2142
I1
s(I5
I-3
tp2143
I2
s(I-2
I2
tp2144
I4
s(I2
I0
tp2145
I2
s(I2
I-5
tp2146
I2
s(I-7
I7
tp2147
I4
s(I-3
I2
tp2148
I1
s(I5
I0
tp2149
I3
s(I2
I2
tp2150
I4
s(I1
I-3
tp2151
I1
s(I-4
I7
tp2152
I1
s(I0
I-4
tp2153
I2
s(I-5
I0
tp2154
I1
s(I-2
I-5
tp2155
I4
s(I0
I0
tp2156
I5
s(I-1
I-2
tp2157
I5
s(I2
I-2
tp2158
I4
s(I-2
I-2
tp2159
I1
s(I2
I3
tp2160
I2
s(I-2
I-3
tp2161
I3
s(I-4
I0
tp2162
I1
s(I7
I-4
tp2163
I1
s(I1
I0
tp2164
I1
s(I0
I-3
tp2165
I1
s(I-5
I3
tp2166
I1
s(I5
I3
tp2167
I1
s(I-3
I3
tp2168
I1
s(I-2
I12
tp2169
I1
s(I-7
I-2
tp2170
I1
s(I-4
I-1
tp2171
I1
s(I12
I0
tp2172
I1
s(I-2
I3
tp2173
I1
s(I-7
I5
tp2174
I4
s(I0
I-2
tp2175
I6
s(I-2
I-1
tp2176
I1
s(I-7
I12
tp2177
I2
s(I-2
I-4
tp2178
I1
s(I-4
I-5
tp2179
I1
s(I7
I-5
tp2180
I1
s(I0
I-1
tp2181
I2
s(I-5
I2
tp2182
I1
s(I5
I2
tp2183
I3
s(I0
I2
tp2184
I3
s(I12
I-2
tp2185
I2
ssF1.0
(dp2186
(I7
I3
tp2187
I1
s(I12
I0
tp2188
I2
s(I-1
I5
tp2189
I3
s(I-7
I4
tp2190
I1
s(I-3
I-2
tp2191
I5
s(I-5
I5
tp2192
I1
s(I2
I1
tp2193
I11
s(I-12
I0
tp2194
I1
s(I-4
I2
tp2195
I3
s(I7
I-2
tp2196
I3
s(I0
I0
tp2197
I8
s(I3
I-1
tp2198
I4
s(I-2
I5
tp2199
I1
s(I5
I-5
tp2200
I1
s(I-2
I-7
tp2201
I1
s(I-1
I-7
tp2202
I1
s(I-2
I0
tp2203
I3
s(I1
I2
tp2204
I3
s(I0
I-5
tp2205
I2
s(I-5
I1
tp2206
I2
s(I2
I-2
tp2207
I3
s(I-2
I7
tp2208
I2
s(I2
I-4
tp2209
I1
s(I7
I-7
tp2210
I1
s(I3
I0
tp2211
I1
s(I-3
I2
tp2212
I1
s(I5
I0
tp2213
I3
s(I2
I2
tp2214
I4
s(I-12
I5
tp2215
I2
s(I-5
I-7
tp2216
I2
s(I7
I-3
tp2217
I1
s(I4
I1
tp2218
I1
s(I12
I3
tp2219
I1
s(I5
I-2
tp2220
I3
s(I-5
I2
tp2221
I3
s(I3
I2
tp2222
I1
s(I-2
I2
tp2223
I2
s(I-5
I-2
tp2224
I1
s(I-2
I12
tp2225
I1
s(I-1
I-2
tp2226
I8
s(I-2
I-2
tp2227
I4
s(I2
I-1
tp2228
I2
s(I-1
I1
tp2229
I1
s(I0
I12
tp2230
I1
s(I5
I-7
tp2231
I1
s(I-7
I-5
tp2232
I1
s(I0
I5
tp2233
I8
s(I-2
I-3
tp2234
I8
s(I-7
I0
tp2235
I2
s(I0
I-2
tp2236
I2
s(I1
I0
tp2237
I1
s(I2
I-5
tp2238
I3
s(I-5
I3
tp2239
I1
s(I-1
I12
tp2240
I1
s(I-5
I7
tp2241
I1
s(I7
I0
tp2242
I5
s(I2
I-7
tp2243
I1
s(I12
I-5
tp2244
I1
s(I-3
I1
tp2245
I1
s(I0
I-7
tp2246
I3
s(I-7
I5
tp2247
I1
s(I5
I7
tp2248
I1
s(I-2
I-1
tp2249
I5
s(I3
I-2
tp2250
I3
s(I2
I3
tp2251
I2
s(I-2
I4
tp2252
I1
s(I0
I7
tp2253
I3
s(I5
I2
tp2254
I6
s(I0
I2
tp2255
I4
s(I-3
I12
tp2256
I1
s(I12
I-2
tp2257
I1
ssF0.125
(dp2258
(I-1
I0
tp2259
I1
s(I2
I1
tp2260
I8
s(I-4
I2
tp2261
I1
s(I-3
I12
tp2262
I1
s(I2
I-7
tp2263
I4
s(I-3
I3
tp2264
I1
s(I1
I-1
tp2265
I2
s(I-2
I0
tp2266
I3
s(I1
I2
tp2267
I11
s(I2
I-3
tp2268
I3
s(I-3
I7
tp2269
I2
s(I2
I-5
tp2270
I2
s(I2
I-4
tp2271
I4
s(I5
I-3
tp2272
I1
s(I-3
I2
tp2273
I1
s(I-2
I-1
tp2274
I4
s(I1
I-3
tp2275
I3
s(I3
I2
tp2276
I1
s(I2
I-2
tp2277
I8
s(I2
I2
tp2278
I1
s(I-2
I2
tp2279
I4
s(I3
I-12
tp2280
I2
s(I-2
I-2
tp2281
I3
s(I1
I0
tp2282
I1
s(I-2
I7
tp2283
I1
s(I-3
I5
tp2284
I1
s(I5
I3
tp2285
I1
s(I2
I7
tp2286
I1
s(I-1
I-2
tp2287
I5
s(I2
I0
tp2288
I7
s(I0
I-2
tp2289
I1
ssF0.0625
(dp2290
(I2
I-2
tp2291
I2
s(I2
I-4
tp2292
I2
s(I-2
I3
tp2293
I1
s(I-7
I5
tp2294
I1
s(I3
I-5
tp2295
I1
s(I-2
I2
tp2296
I1
s(I5
I2
tp2297
I1
s(I2
I2
tp2298
I3
s(I3
I0
tp2299
I1
s(I-1
I-2
tp2300
I1
s(I-4
I2
tp2301
I1
s(I-7
I0
tp2302
I1
s(I-2
I5
tp2303
I1
s(I-2
I-1
tp2304
I2
s(I4
I3
tp2305
I1
s(I-2
I-7
tp2306
I2
s(I2
I-5
tp2307
I1
s(I-3
I5
tp2308
I1
s(I1
I-7
tp2309
I1
ssF0.25
(dp2310
(I-5
I0
tp2311
I1
s(I2
I-4
tp2312
I2
s(I-7
I4
tp2313
I1
s(I-3
I-1
tp2314
I1
s(I3
I-3
tp2315
I1
s(I3
I2
tp2316
I2
s(I2
I1
tp2317
I4
s(I-4
I2
tp2318
I4
s(I-3
I12
tp2319
I1
s(I-1
I5
tp2320
I1
s(I-5
I5
tp2321
I2
s(I-2
I-7
tp2322
I3
s(I-7
I7
tp2323
I2
s(I1
I-1
tp2324
I1
s(I-1
I-7
tp2325
I2
s(I7
I2
tp2326
I2
s(I-1
I0
tp2327
I1
s(I1
I2
tp2328
I8
s(I2
I-3
tp2329
I1
s(I2
I-2
tp2330
I3
s(I-1
I-4
tp2331
I1
s(I1
I-2
tp2332
I1
s(I7
I-7
tp2333
I2
s(I-3
I-2
tp2334
I1
s(I-3
I2
tp2335
I2
s(I5
I0
tp2336
I1
s(I-2
I-2
tp2337
I7
s(I-4
I-3
tp2338
I2
s(I0
I-2
tp2339
I7
s(I5
I-2
tp2340
I1
s(I-2
I-5
tp2341
I2
s(I-3
I-4
tp2342
I2
s(I0
I0
tp2343
I1
s(I4
I5
tp2344
I1
s(I2
I2
tp2345
I15
s(I-2
I2
tp2346
I10
s(I-5
I12
tp2347
I2
s(I-1
I1
tp2348
I2
s(I-2
I-1
tp2349
I9
s(I-3
I1
tp2350
I3
s(I2
I3
tp2351
I1
s(I-2
I-3
tp2352
I1
s(I-7
I0
tp2353
I1
s(I0
I-1
tp2354
I2
s(I1
I0
tp2355
I1
s(I1
I-5
tp2356
I1
s(I2
I-5
tp2357
I1
s(I-3
I5
tp2358
I1
s(I-3
I3
tp2359
I1
s(I2
I-7
tp2360
I1
s(I4
I-4
tp2361
I1
s(I-4
I-1
tp2362
I6
s(I-2
I3
tp2363
I1
s(I0
I-3
tp2364
I1
s(I-5
I-7
tp2365
I2
s(I-1
I-2
tp2366
I10
s(I3
I-1
tp2367
I1
s(I2
I0
tp2368
I1
s(I-2
I4
tp2369
I1
s(I5
I2
tp2370
I1
s(I0
I2
tp2371
I6
s(I12
I-2
tp2372
I1
sssa.